; Function Attrs: nounwind uwtable
define ptr @l_StateT_instMonad___rarg___lambda__5(ptr noundef %0, ptr noundef %1, ptr noundef %2, ptr noundef %3) #0 {
  %5 = getelementptr inbounds nuw i8, ptr %3, i64 8
  %6 = load ptr, ptr %5, align 8, !tbaa !9
  %7 = ptrtoint ptr %6 to i64
  %8 = and i64 %7, 1
  %.not = icmp eq i64 %8, 0
  br i1 %.not, label %9, label %lean_inc.exit16

9:                                                ; preds = %4
  %.val.i = load i32, ptr %6, align 4, !tbaa !4
  %10 = icmp sgt i32 %.val.i, 0
  br i1 %10, label %11, label %13, !prof !13

11:                                               ; preds = %9
  %12 = add nuw i32 %.val.i, 1
  store i32 %12, ptr %6, align 4, !tbaa !4
  br label %lean_inc.exit16

13:                                               ; preds = %9
  %.not.i17 = icmp eq i32 %.val.i, 0
  br i1 %.not.i17, label %lean_inc.exit16, label %14

14:                                               ; preds = %13
  tail call void @lean_inc_ref_cold(ptr noundef nonnull %6) #3
  br label %lean_inc.exit16

lean_inc.exit16:                                  ; preds = %14, %13, %11, %4
  %15 = getelementptr inbounds nuw i8, ptr %3, i64 16
  %16 = load ptr, ptr %15, align 8, !tbaa !9
  %17 = ptrtoint ptr %16 to i64
  %18 = and i64 %17, 1
  %.not21 = icmp eq i64 %18, 0
  br i1 %.not21, label %19, label %lean_inc.exit

19:                                               ; preds = %lean_inc.exit16
  %.val.i18 = load i32, ptr %16, align 4, !tbaa !4
  %20 = icmp sgt i32 %.val.i18, 0
  br i1 %20, label %21, label %23, !prof !13

21:                                               ; preds = %19
  %22 = add nuw i32 %.val.i18, 1
  store i32 %22, ptr %16, align 4, !tbaa !4
  br label %lean_inc.exit

23:                                               ; preds = %19
  %.not.i19 = icmp eq i32 %.val.i18, 0
  br i1 %.not.i19, label %lean_inc.exit, label %24

24:                                               ; preds = %23
  tail call void @lean_inc_ref_cold(ptr noundef nonnull %16) #3
  br label %lean_inc.exit

lean_inc.exit:                                    ; preds = %24, %23, %21, %lean_inc.exit16
  %25 = ptrtoint ptr %3 to i64
  %26 = and i64 %25, 1
  %.not22 = icmp eq i64 %26, 0
  br i1 %.not22, label %27, label %lean_dec.exit

27:                                               ; preds = %lean_inc.exit
  %28 = load i32, ptr %3, align 4, !tbaa !4
  %29 = icmp sgt i32 %28, 1
  br i1 %29, label %30, label %32, !prof !13

30:                                               ; preds = %27
  %31 = add nsw i32 %28, -1
  store i32 %31, ptr %3, align 4, !tbaa !4
  br label %lean_dec.exit

32:                                               ; preds = %27
  %.not.i = icmp eq i32 %28, 0
  br i1 %.not.i, label %lean_dec.exit, label %33

33:                                               ; preds = %32
  tail call void @lean_dec_ref_cold(ptr noundef nonnull %3) #3
  br label %lean_dec.exit

lean_dec.exit:                                    ; preds = %33, %32, %30, %lean_inc.exit
  %34 = tail call ptr @lean_apply_2(ptr noundef %0, ptr noundef nonnull inttoptr (i64 1 to ptr), ptr noundef %16) #3
  tail call void @lean_inc_heartbeat() #3
  %35 = tail call noalias ptr @mi_malloc_small(i64 noundef 40) #3
  %36 = icmp eq ptr %35, null
  br i1 %36, label %37, label %lean_alloc_closure.exit

37:                                               ; preds = %lean_dec.exit
  tail call void @lean_internal_panic_out_of_memory() #4
  unreachable

lean_alloc_closure.exit:                          ; preds = %lean_dec.exit
  %38 = getelementptr inbounds nuw i8, ptr %35, i64 4
  store i32 1, ptr %35, align 4, !tbaa !4
  store i32 -184549336, ptr %38, align 4
  %39 = getelementptr inbounds nuw i8, ptr %35, i64 8
  store ptr @l_StateT_instMonad___rarg___lambda__1, ptr %39, align 8, !tbaa !9
  %40 = getelementptr inbounds nuw i8, ptr %35, i64 16
  store i16 3, ptr %40, align 8, !tbaa !11
  %41 = getelementptr inbounds nuw i8, ptr %35, i64 18
  store i16 2, ptr %41, align 2, !tbaa !11
  %42 = getelementptr inbounds nuw i8, ptr %35, i64 24
  store ptr %1, ptr %42, align 8, !tbaa !9
  %43 = getelementptr inbounds nuw i8, ptr %35, i64 32
  store ptr %6, ptr %43, align 8, !tbaa !9
  %44 = tail call ptr @lean_apply_4(ptr noundef %2, ptr noundef nonnull inttoptr (i64 1 to ptr), ptr noundef nonnull inttoptr (i64 1 to ptr), ptr noundef %34, ptr noundef nonnull %35) #3
  ret ptr %44
}